; Function Attrs: mustprogress uwtable
define noundef nonnull ptr @_ZNK5Ipopt14SumMatrixSpace16MakeNewSumMatrixEv(ptr noundef nonnull align 8 dereferenceable(48) %0) local_unnamed_addr #0 align 2 personality ptr @__gxx_personality_v0 {
  %2 = tail call noalias noundef nonnull dereferenceable(128) ptr @_Znwm(i64 noundef 128) #22
  invoke void @_ZN5Ipopt9SumMatrixC1EPKNS_14SumMatrixSpaceE(ptr noundef nonnull align 8 dereferenceable(128) %2, ptr noundef nonnull %0)
          to label %3 unwind label %4

3:                                                ; preds = %1
  ret ptr %2

4:                                                ; preds = %1
  %5 = landingpad { ptr, i32 }
          cleanup
  tail call void @_ZdlPvm(ptr noundef nonnull %2, i64 noundef 128) #23
  resume { ptr, i32 } %5
}